target datalayout = "e-m:e-p270:32:32-p271:32:32-p272:64:64-i64:64-i128:128-f80:128-n8:16:32:64-S128"
target triple = "x86_64-pc-linux-gnu"

%struct.dt_lib_tool_preferences_t = type { ptr, ptr, ptr, ptr, ptr, ptr, ptr, ptr, ptr, ptr, ptr, ptr, ptr, ptr, ptr, ptr, ptr, ptr, ptr, ptr, ptr, ptr, ptr, ptr, ptr, i32 }

; Function Attrs: nounwind uwtable
define internal void @_main_do_event_help(ptr noundef %0, ptr noundef %1) #0 {
  %3 = alloca ptr, align 8
  %4 = alloca ptr, align 8
  %5 = alloca ptr, align 8
  %6 = alloca i32, align 4
  %7 = alloca ptr, align 8
  %8 = alloca i32, align 4
  %9 = alloca ptr, align 8
  %10 = alloca i32, align 4
  store ptr %0, ptr %3, align 8, !tbaa !163
  store ptr %1, ptr %4, align 8, !tbaa !92
  call void @llvm.lifetime.start.p0(i64 8, ptr %5) #9
  %11 = load ptr, ptr %4, align 8, !tbaa !92
  store ptr %11, ptr %5, align 8, !tbaa !11
  call void @llvm.lifetime.start.p0(i64 4, ptr %6) #9
  store i32 0, ptr %6, align 4, !tbaa !97
  %12 = load ptr, ptr %3, align 8, !tbaa !163
  %13 = load i32, ptr %12, align 8, !tbaa !165
  switch i32 %13, label %53 [
    i32 4, label %14
    i32 7, label %30
    i32 10, label %36
    i32 11, label %36
  ]

14:                                               ; preds = %2
  call void @llvm.lifetime.start.p0(i64 8, ptr %7) #9
  %15 = load ptr, ptr %3, align 8, !tbaa !163
  %16 = call ptr @gtk_get_event_widget(ptr noundef %15)
  store ptr %16, ptr %7, align 8, !tbaa !68
  %17 = load ptr, ptr %7, align 8, !tbaa !68
  %18 = icmp ne ptr %17, null
  br i1 %18, label %19, label %28

19:                                               ; preds = %14
  %20 = load ptr, ptr %7, align 8, !tbaa !68
  %21 = load ptr, ptr %5, align 8, !tbaa !11
  %22 = getelementptr inbounds nuw %struct.dt_lib_tool_preferences_t, ptr %21, i32 0, i32 3
  %23 = load ptr, ptr %22, align 8, !tbaa !89
  %24 = icmp eq ptr %20, %23
  br i1 %24, label %25, label %26

25:                                               ; preds = %19
  store i32 2, ptr %8, align 4
  br label %29

26:                                               ; preds = %19
  %27 = load ptr, ptr %7, align 8, !tbaa !68
  call void @dt_gui_show_help(ptr noundef %27)
  br label %28

28:                                               ; preds = %26, %14
  store i32 1, ptr %6, align 4, !tbaa !97
  store i32 2, ptr %8, align 4
  br label %29

29:                                               ; preds = %28, %25
  call void @llvm.lifetime.end.p0(i64 8, ptr %7) #9
  br label %54

30:                                               ; preds = %2
  %31 = load ptr, ptr %5, align 8, !tbaa !11
  %32 = getelementptr inbounds nuw %struct.dt_lib_tool_preferences_t, ptr %31, i32 0, i32 3
  %33 = load ptr, ptr %32, align 8, !tbaa !89
  %34 = call i64 @gtk_toggle_button_get_type() #11
  %35 = call ptr @g_type_check_instance_cast(ptr noundef %33, i64 noundef %34)
  call void @gtk_toggle_button_set_active(ptr noundef %35, i32 noundef 0)
  store i32 1, ptr %6, align 4, !tbaa !97
  br label %54

36:                                               ; preds = %2, %2
  call void @llvm.lifetime.start.p0(i64 8, ptr %9) #9
  %37 = load ptr, ptr %3, align 8, !tbaa !163
  %38 = call ptr @gtk_get_event_widget(ptr noundef %37)
  store ptr %38, ptr %9, align 8, !tbaa !68
  %39 = load ptr, ptr %9, align 8, !tbaa !68
  %40 = icmp ne ptr %39, null
  br i1 %40, label %41, label %52

41:                                               ; preds = %36
  %42 = load ptr, ptr %9, align 8, !tbaa !68
  %43 = call ptr @dt_gui_get_help_url(ptr noundef %42)
  %44 = icmp ne ptr %43, null
  br i1 %44, label %45, label %51

45:                                               ; preds = %41
  call void @llvm.lifetime.start.p0(i64 4, ptr %10) #9
  %46 = load ptr, ptr %3, align 8, !tbaa !163
  %47 = load i32, ptr %46, align 8, !tbaa !165
  %48 = icmp eq i32 %47, 10
  %49 = select i1 %48, i32 92, i32 0
  store i32 %49, ptr %10, align 4, !tbaa !97
  call void (...) @dt_control_allow_change_cursor()
  %50 = load i32, ptr %10, align 4, !tbaa !97
  call void @dt_control_change_cursor(i32 noundef %50)
  call void (...) @dt_control_forbid_change_cursor()
  call void @llvm.lifetime.end.p0(i64 4, ptr %10) #9
  br label %51

51:                                               ; preds = %45, %41
  br label %52

52:                                               ; preds = %51, %36
  store i32 2, ptr %8, align 4
  call void @llvm.lifetime.end.p0(i64 8, ptr %9) #9
  br label %54

53:                                               ; preds = %2
  br label %54

54:                                               ; preds = %53, %52, %30, %29
  %55 = load i32, ptr %6, align 4, !tbaa !97
  %56 = icmp ne i32 %55, 0
  br i1 %56, label %59, label %57

57:                                               ; preds = %54
  %58 = load ptr, ptr %3, align 8, !tbaa !163
  call void @gtk_main_do_event(ptr noundef %58)
  br label %59

59:                                               ; preds = %57, %54
  call void @llvm.lifetime.end.p0(i64 4, ptr %6) #9
  call void @llvm.lifetime.end.p0(i64 8, ptr %5) #9
  ret void
}