; Function Attrs: nounwind uwtable
define internal void @_main_do_event_help(ptr noundef %0, ptr noundef readonly captures(none) %1) #1 {
  %3 = load i32, ptr %0, align 8, !tbaa !151
  switch i32 %3, label %.critedge [
    i32 4, label %4
    i32 7, label %11
    i32 10, label %16
    i32 11, label %16
  ]

4:                                                ; preds = %2
  %5 = tail call ptr @gtk_get_event_widget(ptr noundef nonnull %0) #10
  %.not17 = icmp eq ptr %5, null
  br i1 %.not17, label %24, label %6

6:                                                ; preds = %4
  %7 = getelementptr inbounds nuw i8, ptr %1, i64 24
  %8 = load ptr, ptr %7, align 8, !tbaa !84
  %9 = icmp eq ptr %5, %8
  br i1 %9, label %.critedge, label %10

10:                                               ; preds = %6
  tail call void @dt_gui_show_help(ptr noundef nonnull %5) #10
  br label %24

11:                                               ; preds = %2
  %12 = getelementptr inbounds nuw i8, ptr %1, i64 24
  %13 = load ptr, ptr %12, align 8, !tbaa !84
  %14 = tail call i64 @gtk_toggle_button_get_type() #12
  %15 = tail call ptr @g_type_check_instance_cast(ptr noundef %13, i64 noundef %14) #10
  tail call void @gtk_toggle_button_set_active(ptr noundef %15, i32 noundef 0) #10
  br label %24

16:                                               ; preds = %2, %2
  %17 = tail call ptr @gtk_get_event_widget(ptr noundef nonnull %0) #10
  %.not = icmp eq ptr %17, null
  br i1 %.not, label %.critedge, label %18

18:                                               ; preds = %16
  %19 = tail call ptr @dt_gui_get_help_url(ptr noundef nonnull %17) #10
  %.not16 = icmp eq ptr %19, null
  br i1 %.not16, label %.critedge, label %20

20:                                               ; preds = %18
  %21 = load i32, ptr %0, align 8, !tbaa !151
  %22 = icmp eq i32 %21, 10
  %23 = select i1 %22, i32 92, i32 0
  tail call void (...) @dt_control_allow_change_cursor() #10
  tail call void @dt_control_change_cursor(i32 noundef %23) #10
  tail call void (...) @dt_control_forbid_change_cursor() #10
  br label %.critedge

.critedge:                                        ; preds = %16, %20, %18, %6, %2
  tail call void @gtk_main_do_event(ptr noundef nonnull %0) #10
  br label %24

24:                                               ; preds = %11, %4, %10, %.critedge
  ret void
}